target datalayout = "e-m:e-p270:32:32-p271:32:32-p272:64:64-i64:64-i128:128-f80:128-n8:16:32:64-S128"
target triple = "x86_64-pc-linux-gnu"

@hf_ocp1_params_string = internal global i32 0, align 4
@hf_ocp1_params_string_length = internal global i32 0, align 4
@hf_ocp1_params_string_value = internal global i32 0, align 4
@ett_ocp1_params_string = internal global i32 0, align 4
@.str.364 = private unnamed_addr constant [7 x i8] c"%s: %s\00", align 1

; Function Attrs: null_pointer_is_valid sspstrong uwtable
define internal i32 @decode_params_OcaString(ptr noundef %0, i32 noundef %1, ptr noundef %2, ptr noundef %3) #0 {
  %5 = alloca ptr, align 8
  %6 = alloca i32, align 4
  %7 = alloca ptr, align 8
  %8 = alloca ptr, align 8
  %9 = alloca ptr, align 8
  %10 = alloca ptr, align 8
  %11 = alloca i32, align 4
  %12 = alloca i16, align 2
  store ptr %0, ptr %5, align 8
  store i32 %1, ptr %6, align 4
  store ptr %2, ptr %7, align 8
  store ptr %3, ptr %8, align 8
  call void @llvm.lifetime.start.p0(i64 8, ptr %9) #9
  call void @llvm.lifetime.start.p0(i64 8, ptr %10) #9
  call void @llvm.lifetime.start.p0(i64 4, ptr %11) #9
  %13 = load i32, ptr %6, align 4
  store i32 %13, ptr %11, align 4
  call void @llvm.lifetime.start.p0(i64 2, ptr %12) #9
  %14 = load ptr, ptr %5, align 8
  %15 = load i32, ptr %6, align 4
  %16 = call zeroext i16 @tvb_get_uint16(ptr noundef %14, i32 noundef %15, i32 noundef 0)
  store i16 %16, ptr %12, align 2
  %17 = load ptr, ptr %7, align 8
  %18 = load i32, ptr @hf_ocp1_params_string, align 4
  %19 = load ptr, ptr %5, align 8
  %20 = load i32, ptr %11, align 4
  %21 = load i16, ptr %12, align 2
  %22 = zext i16 %21 to i32
  %23 = add i32 2, %22
  %24 = call ptr @proto_tree_add_item(ptr noundef %17, i32 noundef %18, ptr noundef %19, i32 noundef %20, i32 noundef %23, i32 noundef 0)
  store ptr %24, ptr %10, align 8
  %25 = load ptr, ptr %10, align 8
  %26 = load i32, ptr @ett_ocp1_params_string, align 4
  %27 = call ptr @proto_item_add_subtree(ptr noundef %25, i32 noundef %26)
  store ptr %27, ptr %9, align 8
  %28 = load ptr, ptr %9, align 8
  %29 = load i32, ptr @hf_ocp1_params_string_length, align 4
  %30 = load ptr, ptr %5, align 8
  %31 = load i32, ptr %11, align 4
  %32 = call ptr @proto_tree_add_item(ptr noundef %28, i32 noundef %29, ptr noundef %30, i32 noundef %31, i32 noundef 2, i32 noundef 0)
  %33 = load i32, ptr %11, align 4
  %34 = add i32 %33, 2
  store i32 %34, ptr %11, align 4
  %35 = load ptr, ptr %9, align 8
  %36 = load i32, ptr @hf_ocp1_params_string_value, align 4
  %37 = load ptr, ptr %5, align 8
  %38 = load i32, ptr %11, align 4
  %39 = load i16, ptr %12, align 2
  %40 = zext i16 %39 to i32
  %41 = call ptr @proto_tree_add_item(ptr noundef %35, i32 noundef %36, ptr noundef %37, i32 noundef %38, i32 noundef %40, i32 noundef 2)
  %42 = load ptr, ptr %10, align 8
  %43 = load ptr, ptr %8, align 8
  %44 = call ptr @wmem_packet_scope()
  %45 = load ptr, ptr %5, align 8
  %46 = load i32, ptr %11, align 4
  %47 = load i16, ptr %12, align 2
  %48 = zext i16 %47 to i32
  %49 = call ptr @tvb_get_string_enc(ptr noundef %44, ptr noundef %45, i32 noundef %46, i32 noundef %48, i32 noundef 2)
  call void (ptr, ptr, ...) @proto_item_set_text(ptr noundef %42, ptr noundef @.str.364, ptr noundef %43, ptr noundef %49)
  %50 = load i16, ptr %12, align 2
  %51 = zext i16 %50 to i32
  %52 = load i32, ptr %11, align 4
  %53 = add i32 %52, %51
  store i32 %53, ptr %11, align 4
  %54 = load i32, ptr %11, align 4
  %55 = load i32, ptr %6, align 4
  %56 = sub i32 %54, %55
  call void @llvm.lifetime.end.p0(i64 2, ptr %12) #9
  call void @llvm.lifetime.end.p0(i64 4, ptr %11) #9
  call void @llvm.lifetime.end.p0(i64 8, ptr %10) #9
  call void @llvm.lifetime.end.p0(i64 8, ptr %9) #9
  ret i32 %56
}