; Function Attrs: null_pointer_is_valid sspstrong uwtable
define internal fastcc range(i32 2, 65538) i32 @decode_params_OcaString(ptr noundef %0, i32 noundef %1, ptr noundef %2, ptr noundef %3) unnamed_addr #0 {
  %5 = tail call zeroext i16 @tvb_get_uint16(ptr noundef %0, i32 noundef %1, i32 noundef 0)
  %6 = load i32, ptr @hf_ocp1_params_string, align 4
  %7 = zext i16 %5 to i32
  %8 = add nuw nsw i32 %7, 2
  %9 = tail call ptr @proto_tree_add_item(ptr noundef %2, i32 noundef %6, ptr noundef %0, i32 noundef %1, i32 noundef %8, i32 noundef 0)
  %10 = load i32, ptr @ett_ocp1_params_string, align 4
  %11 = tail call ptr @proto_item_add_subtree(ptr noundef %9, i32 noundef %10)
  %12 = load i32, ptr @hf_ocp1_params_string_length, align 4
  %13 = tail call ptr @proto_tree_add_item(ptr noundef %11, i32 noundef %12, ptr noundef %0, i32 noundef %1, i32 noundef 2, i32 noundef 0)
  %14 = add i32 %1, 2
  %15 = load i32, ptr @hf_ocp1_params_string_value, align 4
  %16 = tail call ptr @proto_tree_add_item(ptr noundef %11, i32 noundef %15, ptr noundef %0, i32 noundef %14, i32 noundef %7, i32 noundef 2)
  %17 = tail call ptr @wmem_packet_scope()
  %18 = tail call ptr @tvb_get_string_enc(ptr noundef %17, ptr noundef %0, i32 noundef %14, i32 noundef %7, i32 noundef 2)
  tail call void (ptr, ptr, ...) @proto_item_set_text(ptr noundef %9, ptr noundef nonnull @.str.364, ptr noundef %3, ptr noundef %18)
  ret i32 %8
}